; Function Attrs: nounwind uwtable
define internal i32 @lsarpc_dissect_lsa_Close_response(ptr noundef %0, i32 noundef %1, ptr noundef %2, ptr noundef %3, ptr noundef initializes((80, 88)) %4, ptr noundef %5) #0 {
  %7 = alloca i32, align 4
  %8 = getelementptr inbounds nuw i8, ptr %4, i64 80
  store ptr @.str.1005, ptr %8, align 8
  %9 = load i32, ptr @hf_lsarpc_lsa_Close_handle, align 4
  %10 = tail call i32 @dissect_ndr_toplevel_pointer(ptr noundef %0, i32 noundef %1, ptr noundef %2, ptr noundef %3, ptr noundef %4, ptr noundef %5, ptr noundef nonnull @lsarpc_dissect_element_lsa_Close_handle_, i32 noundef 1, ptr noundef nonnull @.str.1139, i32 noundef %9) #5
  %11 = tail call i32 @dissect_deferred_pointers(ptr noundef %2, ptr noundef %0, i32 noundef %10, ptr noundef %4, ptr noundef %5) #5
  %12 = load i32, ptr @hf_lsarpc_status, align 4
  %13 = call i32 @dissect_ntstatus(ptr noundef %0, i32 noundef %11, ptr noundef %2, ptr noundef %3, ptr noundef %4, ptr noundef %5, i32 noundef %12, ptr noundef nonnull %7) #5
  %14 = load i32, ptr %7, align 4
  %.not = icmp eq i32 %14, 0
  br i1 %.not, label %19, label %15

15:                                               ; preds = %6
  %16 = getelementptr inbounds nuw i8, ptr %2, i64 8
  %17 = load ptr, ptr %16, align 8
  %18 = call ptr @val_to_str(i32 noundef %14, ptr noundef nonnull @NT_errors, ptr noundef nonnull @.str.1141) #5
  call void (ptr, i32, ptr, ...) @col_append_fstr(ptr noundef %17, i32 noundef 25, ptr noundef nonnull @.str.1140, ptr noundef %18) #5
  br label %19

19:                                               ; preds = %15, %6
  ret i32 %13
}